; ModuleID = 'source-C-CXX/51/6157.c'
source_filename = "source-C-CXX/51/6157.c"
target datalayout = "e-m:e-p270:32:32-p271:32:32-p272:64:64-i64:64-f80:128-n8:16:32:64-S128"
target triple = "x86_64-pc-linux-gnu"

@.str = private unnamed_addr constant [3 x i8] c"%d\00", align 1
@.str.1 = private unnamed_addr constant [4 x i8] c"%d \00", align 1

; Function Attrs: nofree nounwind sspstrong uwtable
define dso_local void @main() local_unnamed_addr #0 {
  %1 = alloca i32, align 4
  %2 = alloca i32, align 4
  %3 = alloca [400 x i32], align 16
  %4 = bitcast i32* %1 to i8*
  call void @llvm.lifetime.start.p0i8(i64 4, i8* nonnull %4) #3
  %5 = bitcast i32* %2 to i8*
  call void @llvm.lifetime.start.p0i8(i64 4, i8* nonnull %5) #3
  %6 = bitcast [400 x i32]* %3 to i8*
  call void @llvm.lifetime.start.p0i8(i64 1600, i8* nonnull %6) #3
  %7 = call i32 (i8*, ...) @__isoc99_scanf(i8* getelementptr inbounds ([3 x i8], [3 x i8]* @.str, i64 0, i64 0), i32* nonnull %1)
  %8 = call i32 (i8*, ...) @__isoc99_scanf(i8* getelementptr inbounds ([3 x i8], [3 x i8]* @.str, i64 0, i64 0), i32* nonnull %2)
  %9 = load i32, i32* %1, align 4, !tbaa !5
  %10 = icmp slt i32 %9, 1
  br i1 %10, label %11, label %131

11:                                               ; preds = %131, %0
  %12 = phi i32 [ %9, %0 ], [ %139, %131 ]
  %13 = load i32, i32* %2, align 4, !tbaa !5
  %14 = add i32 %12, 200
  %15 = icmp slt i32 %13, 1
  br i1 %15, label %142, label %16

16:                                               ; preds = %11
  %17 = add nuw i32 %13, 1
  %18 = zext i32 %17 to i64
  %19 = add nsw i64 %18, -1
  %20 = icmp ult i64 %19, 8
  br i1 %20, label %113, label %21

21:                                               ; preds = %16
  %22 = add nsw i64 %18, -2
  %23 = add i32 %12, 201
  %24 = sub i32 %23, %13
  %25 = trunc i64 %22 to i32
  %26 = add i32 %24, %25
  %27 = icmp slt i32 %26, %24
  %28 = icmp ugt i64 %22, 4294967295
  %29 = or i1 %27, %28
  br i1 %29, label %113, label %30

30:                                               ; preds = %21
  %31 = getelementptr inbounds [400 x i32], [400 x i32]* %3, i64 0, i64 1
  %32 = getelementptr [400 x i32], [400 x i32]* %3, i64 0, i64 %18
  %33 = add i32 %12, 201
  %34 = sub i32 %33, %13
  %35 = sext i32 %34 to i64
  %36 = getelementptr [400 x i32], [400 x i32]* %3, i64 0, i64 %35
  %37 = add nsw i64 %35, %18
  %38 = add nsw i64 %37, -1
  %39 = getelementptr [400 x i32], [400 x i32]* %3, i64 0, i64 %38
  %40 = icmp ult i32* %31, %39
  %41 = icmp ult i32* %36, %32
  %42 = and i1 %40, %41
  br i1 %42, label %113, label %43

43:                                               ; preds = %30
  %44 = and i64 %19, -8
  %45 = or i64 %44, 1
  %46 = add nsw i64 %44, -8
  %47 = lshr exact i64 %46, 3
  %48 = add nuw nsw i64 %47, 1
  %49 = and i64 %48, 1
  %50 = icmp eq i64 %46, 0
  br i1 %50, label %91, label %51

51:                                               ; preds = %43
  %52 = and i64 %48, 4611686018427387902
  br label %53

53:                                               ; preds = %53, %51
  %54 = phi i64 [ 0, %51 ], [ %88, %53 ]
  %55 = phi i64 [ %52, %51 ], [ %89, %53 ]
  %56 = or i64 %54, 1
  %57 = trunc i64 %54 to i32
  %58 = or i32 %57, 1
  %59 = add i32 %14, %58
  %60 = sub i32 %59, %13
  %61 = sext i32 %60 to i64
  %62 = getelementptr inbounds [400 x i32], [400 x i32]* %3, i64 0, i64 %61
  %63 = bitcast i32* %62 to <4 x i32>*
  %64 = load <4 x i32>, <4 x i32>* %63, align 4, !tbaa !5, !alias.scope !9
  %65 = getelementptr inbounds i32, i32* %62, i64 4
  %66 = bitcast i32* %65 to <4 x i32>*
  %67 = load <4 x i32>, <4 x i32>* %66, align 4, !tbaa !5, !alias.scope !9
  %68 = getelementptr inbounds [400 x i32], [400 x i32]* %3, i64 0, i64 %56
  %69 = bitcast i32* %68 to <4 x i32>*
  store <4 x i32> %64, <4 x i32>* %69, align 4, !tbaa !5, !alias.scope !12, !noalias !9
  %70 = getelementptr inbounds i32, i32* %68, i64 4
  %71 = bitcast i32* %70 to <4 x i32>*
  store <4 x i32> %67, <4 x i32>* %71, align 4, !tbaa !5, !alias.scope !12, !noalias !9
  %72 = or i64 %54, 9
  %73 = trunc i64 %54 to i32
  %74 = or i32 %73, 9
  %75 = add i32 %14, %74
  %76 = sub i32 %75, %13
  %77 = sext i32 %76 to i64
  %78 = getelementptr inbounds [400 x i32], [400 x i32]* %3, i64 0, i64 %77
  %79 = bitcast i32* %78 to <4 x i32>*
  %80 = load <4 x i32>, <4 x i32>* %79, align 4, !tbaa !5, !alias.scope !9
  %81 = getelementptr inbounds i32, i32* %78, i64 4
  %82 = bitcast i32* %81 to <4 x i32>*
  %83 = load <4 x i32>, <4 x i32>* %82, align 4, !tbaa !5, !alias.scope !9
  %84 = getelementptr inbounds [400 x i32], [400 x i32]* %3, i64 0, i64 %72
  %85 = bitcast i32* %84 to <4 x i32>*
  store <4 x i32> %80, <4 x i32>* %85, align 4, !tbaa !5, !alias.scope !12, !noalias !9
  %86 = getelementptr inbounds i32, i32* %84, i64 4
  %87 = bitcast i32* %86 to <4 x i32>*
  store <4 x i32> %83, <4 x i32>* %87, align 4, !tbaa !5, !alias.scope !12, !noalias !9
  %88 = add nuw i64 %54, 16
  %89 = add i64 %55, -2
  %90 = icmp eq i64 %89, 0
  br i1 %90, label %91, label %53, !llvm.loop !14

91:                                               ; preds = %53, %43
  %92 = phi i64 [ 0, %43 ], [ %88, %53 ]
  %93 = icmp eq i64 %49, 0
  br i1 %93, label %111, label %94

94:                                               ; preds = %91
  %95 = or i64 %92, 1
  %96 = trunc i64 %92 to i32
  %97 = or i32 %96, 1
  %98 = add i32 %14, %97
  %99 = sub i32 %98, %13
  %100 = sext i32 %99 to i64
  %101 = getelementptr inbounds [400 x i32], [400 x i32]* %3, i64 0, i64 %100
  %102 = bitcast i32* %101 to <4 x i32>*
  %103 = load <4 x i32>, <4 x i32>* %102, align 4, !tbaa !5, !alias.scope !9
  %104 = getelementptr inbounds i32, i32* %101, i64 4
  %105 = bitcast i32* %104 to <4 x i32>*
  %106 = load <4 x i32>, <4 x i32>* %105, align 4, !tbaa !5, !alias.scope !9
  %107 = getelementptr inbounds [400 x i32], [400 x i32]* %3, i64 0, i64 %95
  %108 = bitcast i32* %107 to <4 x i32>*
  store <4 x i32> %103, <4 x i32>* %108, align 4, !tbaa !5, !alias.scope !12, !noalias !9
  %109 = getelementptr inbounds i32, i32* %107, i64 4
  %110 = bitcast i32* %109 to <4 x i32>*
  store <4 x i32> %106, <4 x i32>* %110, align 4, !tbaa !5, !alias.scope !12, !noalias !9
  br label %111

111:                                              ; preds = %91, %94
  %112 = icmp eq i64 %19, %44
  br i1 %112, label %142, label %113

113:                                              ; preds = %30, %21, %16, %111
  %114 = phi i64 [ 1, %30 ], [ 1, %21 ], [ 1, %16 ], [ %45, %111 ]
  %115 = xor i64 %114, -1
  %116 = and i64 %18, 1
  %117 = icmp eq i64 %116, 0
  br i1 %117, label %118, label %127

118:                                              ; preds = %113
  %119 = trunc i64 %114 to i32
  %120 = add i32 %14, %119
  %121 = sub i32 %120, %13
  %122 = sext i32 %121 to i64
  %123 = getelementptr inbounds [400 x i32], [400 x i32]* %3, i64 0, i64 %122
  %124 = load i32, i32* %123, align 4, !tbaa !5
  %125 = getelementptr inbounds [400 x i32], [400 x i32]* %3, i64 0, i64 %114
  store i32 %124, i32* %125, align 4, !tbaa !5
  %126 = add nuw nsw i64 %114, 1
  br label %127

127:                                              ; preds = %118, %113
  %128 = phi i64 [ %114, %113 ], [ %126, %118 ]
  %129 = sub nsw i64 0, %18
  %130 = icmp eq i64 %115, %129
  br i1 %130, label %142, label %244

131:                                              ; preds = %0, %131
  %132 = phi i64 [ %138, %131 ], [ 1, %0 ]
  %133 = getelementptr inbounds [400 x i32], [400 x i32]* %3, i64 0, i64 %132
  %134 = call i32 (i8*, ...) @__isoc99_scanf(i8* getelementptr inbounds ([3 x i8], [3 x i8]* @.str, i64 0, i64 0), i32* nonnull %133)
  %135 = load i32, i32* %133, align 4, !tbaa !5
  %136 = add nuw nsw i64 %132, 200
  %137 = getelementptr inbounds [400 x i32], [400 x i32]* %3, i64 0, i64 %136
  store i32 %135, i32* %137, align 4, !tbaa !5
  %138 = add nuw nsw i64 %132, 1
  %139 = load i32, i32* %1, align 4, !tbaa !5
  %140 = sext i32 %139 to i64
  %141 = icmp slt i64 %132, %140
  br i1 %141, label %131, label %11, !llvm.loop !17

142:                                              ; preds = %127, %244, %111, %11
  %143 = icmp sgt i32 %12, %13
  br i1 %143, label %144, label %263

144:                                              ; preds = %142
  %145 = sext i32 %13 to i64
  %146 = add i32 %12, 1
  %147 = sub i32 %146, %13
  %148 = zext i32 %147 to i64
  %149 = add nsw i64 %148, -1
  %150 = icmp ult i64 %149, 8
  br i1 %150, label %223, label %151

151:                                              ; preds = %144
  %152 = add nsw i64 %145, 1
  %153 = getelementptr [400 x i32], [400 x i32]* %3, i64 0, i64 %152
  %154 = add nsw i64 %145, %148
  %155 = getelementptr [400 x i32], [400 x i32]* %3, i64 0, i64 %154
  %156 = getelementptr inbounds [400 x i32], [400 x i32]* %3, i64 0, i64 201
  %157 = add nuw nsw i64 %148, 200
  %158 = getelementptr [400 x i32], [400 x i32]* %3, i64 0, i64 %157
  %159 = icmp ult i32* %153, %158
  %160 = icmp ult i32* %156, %155
  %161 = and i1 %159, %160
  br i1 %161, label %223, label %162

162:                                              ; preds = %151
  %163 = and i64 %149, -8
  %164 = or i64 %163, 1
  %165 = add nsw i64 %163, -8
  %166 = lshr exact i64 %165, 3
  %167 = add nuw nsw i64 %166, 1
  %168 = and i64 %167, 1
  %169 = icmp eq i64 %165, 0
  br i1 %169, label %204, label %170

170:                                              ; preds = %162
  %171 = and i64 %167, 4611686018427387902
  br label %172

172:                                              ; preds = %172, %170
  %173 = phi i64 [ 0, %170 ], [ %201, %172 ]
  %174 = phi i64 [ %171, %170 ], [ %202, %172 ]
  %175 = or i64 %173, 1
  %176 = add i64 %173, 201
  %177 = getelementptr inbounds [400 x i32], [400 x i32]* %3, i64 0, i64 %176
  %178 = bitcast i32* %177 to <4 x i32>*
  %179 = load <4 x i32>, <4 x i32>* %178, align 4, !tbaa !5, !alias.scope !18
  %180 = getelementptr inbounds i32, i32* %177, i64 4
  %181 = bitcast i32* %180 to <4 x i32>*
  %182 = load <4 x i32>, <4 x i32>* %181, align 4, !tbaa !5, !alias.scope !18
  %183 = add nsw i64 %175, %145
  %184 = getelementptr inbounds [400 x i32], [400 x i32]* %3, i64 0, i64 %183
  %185 = bitcast i32* %184 to <4 x i32>*
  store <4 x i32> %179, <4 x i32>* %185, align 4, !tbaa !5, !alias.scope !21, !noalias !18
  %186 = getelementptr inbounds i32, i32* %184, i64 4
  %187 = bitcast i32* %186 to <4 x i32>*
  store <4 x i32> %182, <4 x i32>* %187, align 4, !tbaa !5, !alias.scope !21, !noalias !18
  %188 = or i64 %173, 9
  %189 = add i64 %173, 209
  %190 = getelementptr inbounds [400 x i32], [400 x i32]* %3, i64 0, i64 %189
  %191 = bitcast i32* %190 to <4 x i32>*
  %192 = load <4 x i32>, <4 x i32>* %191, align 4, !tbaa !5, !alias.scope !18
  %193 = getelementptr inbounds i32, i32* %190, i64 4
  %194 = bitcast i32* %193 to <4 x i32>*
  %195 = load <4 x i32>, <4 x i32>* %194, align 4, !tbaa !5, !alias.scope !18
  %196 = add nsw i64 %188, %145
  %197 = getelementptr inbounds [400 x i32], [400 x i32]* %3, i64 0, i64 %196
  %198 = bitcast i32* %197 to <4 x i32>*
  store <4 x i32> %192, <4 x i32>* %198, align 4, !tbaa !5, !alias.scope !21, !noalias !18
  %199 = getelementptr inbounds i32, i32* %197, i64 4
  %200 = bitcast i32* %199 to <4 x i32>*
  store <4 x i32> %195, <4 x i32>* %200, align 4, !tbaa !5, !alias.scope !21, !noalias !18
  %201 = add nuw i64 %173, 16
  %202 = add i64 %174, -2
  %203 = icmp eq i64 %202, 0
  br i1 %203, label %204, label %172, !llvm.loop !23

204:                                              ; preds = %172, %162
  %205 = phi i64 [ 0, %162 ], [ %201, %172 ]
  %206 = icmp eq i64 %168, 0
  br i1 %206, label %221, label %207

207:                                              ; preds = %204
  %208 = or i64 %205, 1
  %209 = add i64 %205, 201
  %210 = getelementptr inbounds [400 x i32], [400 x i32]* %3, i64 0, i64 %209
  %211 = bitcast i32* %210 to <4 x i32>*
  %212 = load <4 x i32>, <4 x i32>* %211, align 4, !tbaa !5, !alias.scope !18
  %213 = getelementptr inbounds i32, i32* %210, i64 4
  %214 = bitcast i32* %213 to <4 x i32>*
  %215 = load <4 x i32>, <4 x i32>* %214, align 4, !tbaa !5, !alias.scope !18
  %216 = add nsw i64 %208, %145
  %217 = getelementptr inbounds [400 x i32], [400 x i32]* %3, i64 0, i64 %216
  %218 = bitcast i32* %217 to <4 x i32>*
  store <4 x i32> %212, <4 x i32>* %218, align 4, !tbaa !5, !alias.scope !21, !noalias !18
  %219 = getelementptr inbounds i32, i32* %217, i64 4
  %220 = bitcast i32* %219 to <4 x i32>*
  store <4 x i32> %215, <4 x i32>* %220, align 4, !tbaa !5, !alias.scope !21, !noalias !18
  br label %221

221:                                              ; preds = %204, %207
  %222 = icmp eq i64 %149, %163
  br i1 %222, label %263, label %223

223:                                              ; preds = %151, %144, %221
  %224 = phi i64 [ 1, %151 ], [ 1, %144 ], [ %164, %221 ]
  %225 = sub nsw i64 %148, %224
  %226 = xor i64 %224, -1
  %227 = add nsw i64 %226, %148
  %228 = and i64 %225, 3
  %229 = icmp eq i64 %228, 0
  br i1 %229, label %241, label %230

230:                                              ; preds = %223, %230
  %231 = phi i64 [ %238, %230 ], [ %224, %223 ]
  %232 = phi i64 [ %239, %230 ], [ %228, %223 ]
  %233 = add nuw nsw i64 %231, 200
  %234 = getelementptr inbounds [400 x i32], [400 x i32]* %3, i64 0, i64 %233
  %235 = load i32, i32* %234, align 4, !tbaa !5
  %236 = add nsw i64 %231, %145
  %237 = getelementptr inbounds [400 x i32], [400 x i32]* %3, i64 0, i64 %236
  store i32 %235, i32* %237, align 4, !tbaa !5
  %238 = add nuw nsw i64 %231, 1
  %239 = add i64 %232, -1
  %240 = icmp eq i64 %239, 0
  br i1 %240, label %241, label %230, !llvm.loop !24

241:                                              ; preds = %230, %223
  %242 = phi i64 [ %224, %223 ], [ %238, %230 ]
  %243 = icmp ult i64 %227, 3
  br i1 %243, label %263, label %265

244:                                              ; preds = %127, %244
  %245 = phi i64 [ %261, %244 ], [ %128, %127 ]
  %246 = trunc i64 %245 to i32
  %247 = add i32 %14, %246
  %248 = sub i32 %247, %13
  %249 = sext i32 %248 to i64
  %250 = getelementptr inbounds [400 x i32], [400 x i32]* %3, i64 0, i64 %249
  %251 = load i32, i32* %250, align 4, !tbaa !5
  %252 = getelementptr inbounds [400 x i32], [400 x i32]* %3, i64 0, i64 %245
  store i32 %251, i32* %252, align 4, !tbaa !5
  %253 = add nuw nsw i64 %245, 1
  %254 = trunc i64 %253 to i32
  %255 = add i32 %14, %254
  %256 = sub i32 %255, %13
  %257 = sext i32 %256 to i64
  %258 = getelementptr inbounds [400 x i32], [400 x i32]* %3, i64 0, i64 %257
  %259 = load i32, i32* %258, align 4, !tbaa !5
  %260 = getelementptr inbounds [400 x i32], [400 x i32]* %3, i64 0, i64 %253
  store i32 %259, i32* %260, align 4, !tbaa !5
  %261 = add nuw nsw i64 %245, 2
  %262 = icmp eq i64 %261, %18
  br i1 %262, label %142, label %244, !llvm.loop !26

263:                                              ; preds = %241, %265, %221, %142
  %264 = icmp sgt i32 %12, 1
  br i1 %264, label %292, label %301

265:                                              ; preds = %241, %265
  %266 = phi i64 [ %290, %265 ], [ %242, %241 ]
  %267 = add nuw nsw i64 %266, 200
  %268 = getelementptr inbounds [400 x i32], [400 x i32]* %3, i64 0, i64 %267
  %269 = load i32, i32* %268, align 4, !tbaa !5
  %270 = add nsw i64 %266, %145
  %271 = getelementptr inbounds [400 x i32], [400 x i32]* %3, i64 0, i64 %270
  store i32 %269, i32* %271, align 4, !tbaa !5
  %272 = add nuw nsw i64 %266, 1
  %273 = add nuw nsw i64 %266, 201
  %274 = getelementptr inbounds [400 x i32], [400 x i32]* %3, i64 0, i64 %273
  %275 = load i32, i32* %274, align 4, !tbaa !5
  %276 = add nsw i64 %272, %145
  %277 = getelementptr inbounds [400 x i32], [400 x i32]* %3, i64 0, i64 %276
  store i32 %275, i32* %277, align 4, !tbaa !5
  %278 = add nuw nsw i64 %266, 2
  %279 = add nuw nsw i64 %266, 202
  %280 = getelementptr inbounds [400 x i32], [400 x i32]* %3, i64 0, i64 %279
  %281 = load i32, i32* %280, align 4, !tbaa !5
  %282 = add nsw i64 %278, %145
  %283 = getelementptr inbounds [400 x i32], [400 x i32]* %3, i64 0, i64 %282
  store i32 %281, i32* %283, align 4, !tbaa !5
  %284 = add nuw nsw i64 %266, 3
  %285 = add nuw nsw i64 %266, 203
  %286 = getelementptr inbounds [400 x i32], [400 x i32]* %3, i64 0, i64 %285
  %287 = load i32, i32* %286, align 4, !tbaa !5
  %288 = add nsw i64 %284, %145
  %289 = getelementptr inbounds [400 x i32], [400 x i32]* %3, i64 0, i64 %288
  store i32 %287, i32* %289, align 4, !tbaa !5
  %290 = add nuw nsw i64 %266, 4
  %291 = icmp eq i64 %290, %148
  br i1 %291, label %263, label %265, !llvm.loop !27

292:                                              ; preds = %263, %292
  %293 = phi i64 [ %297, %292 ], [ 1, %263 ]
  %294 = getelementptr inbounds [400 x i32], [400 x i32]* %3, i64 0, i64 %293
  %295 = load i32, i32* %294, align 4, !tbaa !5
  %296 = call i32 (i8*, ...) @printf(i8* nonnull dereferenceable(1) getelementptr inbounds ([4 x i8], [4 x i8]* @.str.1, i64 0, i64 0), i32 %295)
  %297 = add nuw nsw i64 %293, 1
  %298 = load i32, i32* %1, align 4, !tbaa !5
  %299 = sext i32 %298 to i64
  %300 = icmp slt i64 %297, %299
  br i1 %300, label %292, label %301, !llvm.loop !28

301:                                              ; preds = %292, %263
  %302 = phi i32 [ %12, %263 ], [ %298, %292 ]
  %303 = sext i32 %302 to i64
  %304 = getelementptr inbounds [400 x i32], [400 x i32]* %3, i64 0, i64 %303
  %305 = load i32, i32* %304, align 4, !tbaa !5
  %306 = call i32 (i8*, ...) @printf(i8* nonnull dereferenceable(1) getelementptr inbounds ([3 x i8], [3 x i8]* @.str, i64 0, i64 0), i32 %305)
  call void @llvm.lifetime.end.p0i8(i64 1600, i8* nonnull %6) #3
  call void @llvm.lifetime.end.p0i8(i64 4, i8* nonnull %5) #3
  call void @llvm.lifetime.end.p0i8(i64 4, i8* nonnull %4) #3
  ret void
}

; Function Attrs: argmemonly mustprogress nofree nosync nounwind willreturn
declare void @llvm.lifetime.start.p0i8(i64 immarg, i8* nocapture) #1

; Function Attrs: nofree nounwind
declare noundef i32 @__isoc99_scanf(i8* nocapture noundef readonly, ...) local_unnamed_addr #2

; Function Attrs: nofree nounwind
declare noundef i32 @printf(i8* nocapture noundef readonly, ...) local_unnamed_addr #2

; Function Attrs: argmemonly mustprogress nofree nosync nounwind willreturn
declare void @llvm.lifetime.end.p0i8(i64 immarg, i8* nocapture) #1


!llvm.module.flags = !{!0, !1, !2, !3}
!llvm.ident = !{!4}

!0 = !{i32 1, !"wchar_size", i32 4}
!1 = !{i32 7, !"PIC Level", i32 2}
!2 = !{i32 7, !"PIE Level", i32 2}
!3 = !{i32 7, !"uwtable", i32 1}
!4 = !{!"clang version 13.0.0"}
!5 = !{!6, !6, i64 0}
!6 = !{!"int", !7, i64 0}
!7 = !{!"omnipotent char", !8, i64 0}
!8 = !{!"Simple C/C++ TBAA"}
!9 = !{!10}
!10 = distinct !{!10, !11}
!11 = distinct !{!11, !"LVerDomain"}
!12 = !{!13}
!13 = distinct !{!13, !11}
!14 = distinct !{!14, !15, !16}
!15 = !{!"llvm.loop.mustprogress"}
!16 = !{!"llvm.loop.isvectorized", i32 1}
!17 = distinct !{!17, !15}
!18 = !{!19}
!19 = distinct !{!19, !20}
!20 = distinct !{!20, !"LVerDomain"}
!21 = !{!22}
!22 = distinct !{!22, !20}
!23 = distinct !{!23, !15, !16}
!24 = distinct !{!24, !25}
!25 = !{!"llvm.loop.unroll.disable"}
!26 = distinct !{!26, !15, !16}
!27 = distinct !{!27, !15, !16}
!28 = distinct !{!28, !15}
